target datalayout = "e-m:e-p270:32:32-p271:32:32-p272:64:64-i64:64-i128:128-f80:128-n8:16:32:64-S128"
target triple = "x86_64-pc-linux-gnu"

%struct.ItemPointerData = type { %struct.BlockIdData, i16 }
%struct.BlockIdData = type { i16, i16 }
%struct.RelationData = type { %struct.RelFileLocator, ptr, i32, i32, i8, i8, i8, i8, i8, i32, i32, i32, i32, ptr, ptr, i32, %struct.LockInfoData, ptr, ptr, ptr, ptr, ptr, i8, ptr, ptr, ptr, ptr, ptr, ptr, i32, ptr, i8, ptr, ptr, i32, i8, i32, ptr, i8, ptr, ptr, ptr, ptr, ptr, ptr, ptr, i32, ptr, ptr, ptr, ptr, ptr, ptr, ptr, ptr, ptr, ptr, ptr, ptr, ptr, ptr, ptr, ptr, ptr, ptr, ptr, i32, i8, ptr }
%struct.RelFileLocator = type { i32, i32, i32 }
%struct.LockInfoData = type { %struct.LockRelId }
%struct.LockRelId = type { i32, i32 }
%struct.TM_IndexDeleteOp = type { ptr, i32, i8, i32, i32, ptr, ptr }
%struct.IndexTupleData = type { %struct.ItemPointerData, i16 }
%struct.TM_IndexDelete = type { %struct.ItemPointerData, i16 }
%struct.TM_IndexStatus = type { i16, i8, i8, i16 }
%struct.PageHeaderData = type { %struct.PageXLogRecPtr, i16, i16, i16, i16, i16, i16, i32, [0 x %struct.ItemIdData] }
%struct.PageXLogRecPtr = type { i32, i32 }
%struct.ItemIdData = type { i32 }
%struct.TableAmRoutine = type { i32, ptr, ptr, ptr, ptr, ptr, ptr, ptr, ptr, ptr, ptr, ptr, ptr, ptr, ptr, ptr, ptr, ptr, ptr, ptr, ptr, ptr, ptr, ptr, ptr, ptr, ptr, ptr, ptr, ptr, ptr, ptr, ptr, ptr, ptr, ptr, ptr, ptr, ptr, ptr, ptr, ptr, ptr, ptr, ptr, ptr }

@LocalBufferBlockPointers = external global ptr, align 8
@BufferBlocks = external global ptr, align 8

; Function Attrs: inlinehint nounwind uwtable
define internal ptr @BufferGetBlock(i32 noundef %0) #3 {
  %2 = alloca ptr, align 8
  %3 = alloca i32, align 4
  store i32 %0, ptr %3, align 4
  %4 = load i32, ptr %3, align 4
  %5 = icmp slt i32 %4, 0
  br i1 %5, label %6, label %14

6:                                                ; preds = %1
  %7 = load ptr, ptr @LocalBufferBlockPointers, align 8
  %8 = load i32, ptr %3, align 4
  %9 = sub i32 0, %8
  %10 = sub i32 %9, 1
  %11 = sext i32 %10 to i64
  %12 = getelementptr inbounds ptr, ptr %7, i64 %11
  %13 = load ptr, ptr %12, align 8
  store ptr %13, ptr %2, align 8
  br label %21

14:                                               ; preds = %1
  %15 = load ptr, ptr @BufferBlocks, align 8
  %16 = load i32, ptr %3, align 4
  %17 = sub i32 %16, 1
  %18 = sext i32 %17 to i64
  %19 = mul i64 %18, 8192
  %20 = getelementptr inbounds nuw i8, ptr %15, i64 %19
  store ptr %20, ptr %2, align 8
  br label %21

21:                                               ; preds = %14, %6
  %22 = load ptr, ptr %2, align 8
  ret ptr %22
}

; Function Attrs: inlinehint nounwind uwtable
define internal i32 @table_index_delete_tuples(ptr noundef %0, ptr noundef %1) #3 {
  %3 = alloca ptr, align 8
  %4 = alloca ptr, align 8
  store ptr %0, ptr %3, align 8
  store ptr %1, ptr %4, align 8
  %5 = load ptr, ptr %3, align 8
  %6 = getelementptr inbounds nuw %struct.RelationData, ptr %5, i32 0, i32 47
  %7 = load ptr, ptr %6, align 8
  %8 = getelementptr inbounds nuw %struct.TableAmRoutine, ptr %7, i32 0, i32 19
  %9 = load ptr, ptr %8, align 8
  %10 = load ptr, ptr %3, align 8
  %11 = load ptr, ptr %4, align 8
  %12 = call i32 %9(ptr noundef %10, ptr noundef %11)
  ret i32 %12
}

; Function Attrs: inlinehint nounwind uwtable
define internal void @ItemPointerCopy(ptr noundef %0, ptr noundef %1) #3 {
  %3 = alloca ptr, align 8
  %4 = alloca ptr, align 8
  store ptr %0, ptr %3, align 8
  store ptr %1, ptr %4, align 8
  %5 = load ptr, ptr %4, align 8
  %6 = load ptr, ptr %3, align 8
  call void @llvm.memcpy.p0.p0.i64(ptr align 2 %5, ptr align 2 %6, i64 6, i1 false)
  ret void
}

; Function Attrs: inlinehint nounwind uwtable
define internal ptr @PageGetItem(ptr noundef %0, ptr noundef %1) #3 {
  %3 = alloca ptr, align 8
  %4 = alloca ptr, align 8
  store ptr %0, ptr %3, align 8
  store ptr %1, ptr %4, align 8
  %5 = load ptr, ptr %3, align 8
  %6 = load ptr, ptr %4, align 8
  %7 = load i32, ptr %6, align 4
  %8 = and i32 %7, 32767
  %9 = sext i32 %8 to i64
  %10 = getelementptr inbounds i8, ptr %5, i64 %9
  ret ptr %10
}

; Function Attrs: inlinehint nounwind uwtable
define internal ptr @PageGetItemId(ptr noundef %0, i16 noundef zeroext %1) #3 {
  %3 = alloca ptr, align 8
  %4 = alloca i16, align 2
  store ptr %0, ptr %3, align 8
  store i16 %1, ptr %4, align 2
  %5 = load ptr, ptr %3, align 8
  %6 = getelementptr inbounds nuw %struct.PageHeaderData, ptr %5, i32 0, i32 8
  %7 = load i16, ptr %4, align 2
  %8 = zext i16 %7 to i32
  %9 = sub i32 %8, 1
  %10 = sext i32 %9 to i64
  %11 = getelementptr inbounds [0 x %struct.ItemIdData], ptr %6, i64 0, i64 %10
  ret ptr %11
}

; Function Attrs: inlinehint nounwind uwtable
define internal ptr @BufferGetPage(i32 noundef %0) #3 {
  %2 = alloca i32, align 4
  store i32 %0, ptr %2, align 4
  %3 = load i32, ptr %2, align 4
  %4 = call ptr @BufferGetBlock(i32 noundef %3)
  ret ptr %4
}

; Function Attrs: nounwind uwtable
define dso_local i32 @index_compute_xid_horizon_for_tuples(ptr noundef %0, ptr noundef %1, i32 noundef %2, ptr noundef %3, i32 noundef %4) #0 {
  %6 = alloca ptr, align 8
  %7 = alloca ptr, align 8
  %8 = alloca i32, align 4
  %9 = alloca ptr, align 8
  %10 = alloca i32, align 4
  %11 = alloca %struct.TM_IndexDeleteOp, align 8
  %12 = alloca i32, align 4
  %13 = alloca ptr, align 8
  %14 = alloca ptr, align 8
  %15 = alloca i32, align 4
  %16 = alloca i16, align 2
  %17 = alloca ptr, align 8
  store ptr %0, ptr %6, align 8
  store ptr %1, ptr %7, align 8
  store i32 %2, ptr %8, align 4
  store ptr %3, ptr %9, align 8
  store i32 %4, ptr %10, align 4
  call void @llvm.lifetime.start.p0(i64 40, ptr %11) #7
  call void @llvm.lifetime.start.p0(i64 4, ptr %12) #7
  store i32 0, ptr %12, align 4
  call void @llvm.lifetime.start.p0(i64 8, ptr %13) #7
  %18 = load i32, ptr %8, align 4
  %19 = call ptr @BufferGetPage(i32 noundef %18)
  store ptr %19, ptr %13, align 8
  call void @llvm.lifetime.start.p0(i64 8, ptr %14) #7
  %20 = load ptr, ptr %6, align 8
  %21 = getelementptr inbounds nuw %struct.TM_IndexDeleteOp, ptr %11, i32 0, i32 0
  store ptr %20, ptr %21, align 8
  %22 = load i32, ptr %8, align 4
  %23 = call i32 @BufferGetBlockNumber(i32 noundef %22)
  %24 = getelementptr inbounds nuw %struct.TM_IndexDeleteOp, ptr %11, i32 0, i32 1
  store i32 %23, ptr %24, align 8
  %25 = getelementptr inbounds nuw %struct.TM_IndexDeleteOp, ptr %11, i32 0, i32 2
  store i8 0, ptr %25, align 4
  %26 = getelementptr inbounds nuw %struct.TM_IndexDeleteOp, ptr %11, i32 0, i32 3
  store i32 0, ptr %26, align 8
  %27 = getelementptr inbounds nuw %struct.TM_IndexDeleteOp, ptr %11, i32 0, i32 4
  store i32 0, ptr %27, align 4
  %28 = load i32, ptr %10, align 4
  %29 = sext i32 %28 to i64
  %30 = mul i64 %29, 8
  %31 = call ptr @palloc(i64 noundef %30)
  %32 = getelementptr inbounds nuw %struct.TM_IndexDeleteOp, ptr %11, i32 0, i32 5
  store ptr %31, ptr %32, align 8
  %33 = load i32, ptr %10, align 4
  %34 = sext i32 %33 to i64
  %35 = mul i64 %34, 6
  %36 = call ptr @palloc(i64 noundef %35)
  %37 = getelementptr inbounds nuw %struct.TM_IndexDeleteOp, ptr %11, i32 0, i32 6
  store ptr %36, ptr %37, align 8
  call void @llvm.lifetime.start.p0(i64 4, ptr %15) #7
  store i32 0, ptr %15, align 4
  br label %38

38:                                               ; preds = %100, %5
  %39 = load i32, ptr %15, align 4
  %40 = load i32, ptr %10, align 4
  %41 = icmp slt i32 %39, %40
  br i1 %41, label %43, label %42

42:                                               ; preds = %38
  call void @llvm.lifetime.end.p0(i64 4, ptr %15) #7
  br label %103

43:                                               ; preds = %38
  call void @llvm.lifetime.start.p0(i64 2, ptr %16) #7
  %44 = load ptr, ptr %9, align 8
  %45 = load i32, ptr %15, align 4
  %46 = sext i32 %45 to i64
  %47 = getelementptr inbounds i16, ptr %44, i64 %46
  %48 = load i16, ptr %47, align 2
  store i16 %48, ptr %16, align 2
  call void @llvm.lifetime.start.p0(i64 8, ptr %17) #7
  %49 = load ptr, ptr %13, align 8
  %50 = load i16, ptr %16, align 2
  %51 = call ptr @PageGetItemId(ptr noundef %49, i16 noundef zeroext %50)
  store ptr %51, ptr %17, align 8
  %52 = load ptr, ptr %13, align 8
  %53 = load ptr, ptr %17, align 8
  %54 = call ptr @PageGetItem(ptr noundef %52, ptr noundef %53)
  store ptr %54, ptr %14, align 8
  %55 = load ptr, ptr %14, align 8
  %56 = getelementptr inbounds nuw %struct.IndexTupleData, ptr %55, i32 0, i32 0
  %57 = getelementptr inbounds nuw %struct.TM_IndexDeleteOp, ptr %11, i32 0, i32 5
  %58 = load ptr, ptr %57, align 8
  %59 = load i32, ptr %15, align 4
  %60 = sext i32 %59 to i64
  %61 = getelementptr inbounds %struct.TM_IndexDelete, ptr %58, i64 %60
  %62 = getelementptr inbounds nuw %struct.TM_IndexDelete, ptr %61, i32 0, i32 0
  call void @ItemPointerCopy(ptr noundef %56, ptr noundef %62)
  %63 = getelementptr inbounds nuw %struct.TM_IndexDeleteOp, ptr %11, i32 0, i32 4
  %64 = load i32, ptr %63, align 4
  %65 = trunc i32 %64 to i16
  %66 = getelementptr inbounds nuw %struct.TM_IndexDeleteOp, ptr %11, i32 0, i32 5
  %67 = load ptr, ptr %66, align 8
  %68 = load i32, ptr %15, align 4
  %69 = sext i32 %68 to i64
  %70 = getelementptr inbounds %struct.TM_IndexDelete, ptr %67, i64 %69
  %71 = getelementptr inbounds nuw %struct.TM_IndexDelete, ptr %70, i32 0, i32 1
  store i16 %65, ptr %71, align 2
  %72 = load i16, ptr %16, align 2
  %73 = getelementptr inbounds nuw %struct.TM_IndexDeleteOp, ptr %11, i32 0, i32 6
  %74 = load ptr, ptr %73, align 8
  %75 = load i32, ptr %15, align 4
  %76 = sext i32 %75 to i64
  %77 = getelementptr inbounds %struct.TM_IndexStatus, ptr %74, i64 %76
  %78 = getelementptr inbounds nuw %struct.TM_IndexStatus, ptr %77, i32 0, i32 0
  store i16 %72, ptr %78, align 2
  %79 = getelementptr inbounds nuw %struct.TM_IndexDeleteOp, ptr %11, i32 0, i32 6
  %80 = load ptr, ptr %79, align 8
  %81 = load i32, ptr %15, align 4
  %82 = sext i32 %81 to i64
  %83 = getelementptr inbounds %struct.TM_IndexStatus, ptr %80, i64 %82
  %84 = getelementptr inbounds nuw %struct.TM_IndexStatus, ptr %83, i32 0, i32 1
  store i8 1, ptr %84, align 2
  %85 = getelementptr inbounds nuw %struct.TM_IndexDeleteOp, ptr %11, i32 0, i32 6
  %86 = load ptr, ptr %85, align 8
  %87 = load i32, ptr %15, align 4
  %88 = sext i32 %87 to i64
  %89 = getelementptr inbounds %struct.TM_IndexStatus, ptr %86, i64 %88
  %90 = getelementptr inbounds nuw %struct.TM_IndexStatus, ptr %89, i32 0, i32 2
  store i8 0, ptr %90, align 1
  %91 = getelementptr inbounds nuw %struct.TM_IndexDeleteOp, ptr %11, i32 0, i32 6
  %92 = load ptr, ptr %91, align 8
  %93 = load i32, ptr %15, align 4
  %94 = sext i32 %93 to i64
  %95 = getelementptr inbounds %struct.TM_IndexStatus, ptr %92, i64 %94
  %96 = getelementptr inbounds nuw %struct.TM_IndexStatus, ptr %95, i32 0, i32 3
  store i16 0, ptr %96, align 2
  %97 = getelementptr inbounds nuw %struct.TM_IndexDeleteOp, ptr %11, i32 0, i32 4
  %98 = load i32, ptr %97, align 4
  %99 = add i32 %98, 1
  store i32 %99, ptr %97, align 4
  call void @llvm.lifetime.end.p0(i64 8, ptr %17) #7
  call void @llvm.lifetime.end.p0(i64 2, ptr %16) #7
  br label %100

100:                                              ; preds = %43
  %101 = load i32, ptr %15, align 4
  %102 = add i32 %101, 1
  store i32 %102, ptr %15, align 4
  br label %38, !llvm.loop !9

103:                                              ; preds = %42
  %104 = load ptr, ptr %7, align 8
  %105 = call i32 @table_index_delete_tuples(ptr noundef %104, ptr noundef %11)
  store i32 %105, ptr %12, align 4
  %106 = getelementptr inbounds nuw %struct.TM_IndexDeleteOp, ptr %11, i32 0, i32 5
  %107 = load ptr, ptr %106, align 8
  call void @pfree(ptr noundef %107)
  %108 = getelementptr inbounds nuw %struct.TM_IndexDeleteOp, ptr %11, i32 0, i32 6
  %109 = load ptr, ptr %108, align 8
  call void @pfree(ptr noundef %109)
  %110 = load i32, ptr %12, align 4
  call void @llvm.lifetime.end.p0(i64 8, ptr %14) #7
  call void @llvm.lifetime.end.p0(i64 8, ptr %13) #7
  call void @llvm.lifetime.end.p0(i64 4, ptr %12) #7
  call void @llvm.lifetime.end.p0(i64 40, ptr %11) #7
  ret i32 %110
}