; Function Attrs: nounwind uwtable
define dso_local i32 @index_compute_xid_horizon_for_tuples(ptr noundef %0, ptr noundef %1, i32 noundef %2, ptr noundef readonly captures(none) %3, i32 noundef %4) local_unnamed_addr #0 {
  %6 = alloca %struct.TM_IndexDeleteOp, align 8
  call void @llvm.lifetime.start.p0(i64 40, ptr nonnull %6) #7
  %7 = icmp slt i32 %2, 0
  br i1 %7, label %8, label %14

8:                                                ; preds = %5
  %9 = load ptr, ptr @LocalBufferBlockPointers, align 8
  %10 = xor i32 %2, -1
  %11 = zext nneg i32 %10 to i64
  %12 = getelementptr inbounds nuw ptr, ptr %9, i64 %11
  %13 = load ptr, ptr %12, align 8
  br label %BufferGetPage.exit

14:                                               ; preds = %5
  %15 = load ptr, ptr @BufferBlocks, align 8
  %16 = add nsw i32 %2, -1
  %17 = sext i32 %16 to i64
  %18 = shl nsw i64 %17, 13
  %19 = getelementptr inbounds nuw i8, ptr %15, i64 %18
  br label %BufferGetPage.exit

BufferGetPage.exit:                               ; preds = %8, %14
  %.0.i.i = phi ptr [ %13, %8 ], [ %19, %14 ]
  store ptr %0, ptr %6, align 8
  %20 = tail call i32 @BufferGetBlockNumber(i32 noundef %2) #7
  %21 = getelementptr inbounds nuw i8, ptr %6, i64 8
  store i32 %20, ptr %21, align 8
  %22 = getelementptr inbounds nuw i8, ptr %6, i64 12
  store i8 0, ptr %22, align 4
  %23 = getelementptr inbounds nuw i8, ptr %6, i64 16
  store i32 0, ptr %23, align 8
  %24 = getelementptr inbounds nuw i8, ptr %6, i64 20
  store i32 0, ptr %24, align 4
  %25 = sext i32 %4 to i64
  %26 = shl nsw i64 %25, 3
  %27 = tail call ptr @palloc(i64 noundef %26) #7
  %28 = getelementptr inbounds nuw i8, ptr %6, i64 24
  store ptr %27, ptr %28, align 8
  %29 = mul nsw i64 %25, 6
  %30 = tail call ptr @palloc(i64 noundef %29) #7
  %31 = getelementptr inbounds nuw i8, ptr %6, i64 32
  store ptr %30, ptr %31, align 8
  %32 = icmp sgt i32 %4, 0
  br i1 %32, label %.lr.ph, label %._crit_edge

.lr.ph:                                           ; preds = %BufferGetPage.exit
  %33 = getelementptr inbounds nuw i8, ptr %.0.i.i, i64 24
  %wide.trip.count = zext nneg i32 %4 to i64
  br label %41

._crit_edge:                                      ; preds = %41, %BufferGetPage.exit
  %34 = getelementptr inbounds nuw i8, ptr %1, i64 320
  %35 = load ptr, ptr %34, align 8
  %36 = getelementptr inbounds nuw i8, ptr %35, i64 152
  %37 = load ptr, ptr %36, align 8
  %38 = call i32 %37(ptr noundef %1, ptr noundef nonnull %6) #7
  %39 = load ptr, ptr %28, align 8
  call void @pfree(ptr noundef %39) #7
  %40 = load ptr, ptr %31, align 8
  call void @pfree(ptr noundef %40) #7
  call void @llvm.lifetime.end.p0(i64 40, ptr nonnull %6) #7
  ret i32 %38

41:                                               ; preds = %.lr.ph, %41
  %42 = phi i32 [ 0, %.lr.ph ], [ %58, %41 ]
  %indvars.iv = phi i64 [ 0, %.lr.ph ], [ %indvars.iv.next, %41 ]
  %43 = getelementptr inbounds nuw i16, ptr %3, i64 %indvars.iv
  %44 = load i16, ptr %43, align 2
  %45 = zext i16 %44 to i64
  %46 = add nsw i64 %45, -1
  %47 = getelementptr inbounds [0 x %struct.ItemIdData], ptr %33, i64 0, i64 %46
  %.val = load i32, ptr %47, align 4
  %48 = and i32 %.val, 32767
  %49 = zext nneg i32 %48 to i64
  %50 = getelementptr inbounds nuw i8, ptr %.0.i.i, i64 %49
  %51 = getelementptr inbounds nuw %struct.TM_IndexDelete, ptr %27, i64 %indvars.iv
  tail call void @llvm.memcpy.p0.p0.i64(ptr noundef nonnull align 2 dereferenceable(6) %51, ptr noundef nonnull readonly align 2 dereferenceable(6) %50, i64 6, i1 false)
  %52 = trunc i32 %42 to i16
  %53 = getelementptr inbounds nuw %struct.TM_IndexDelete, ptr %27, i64 %indvars.iv, i32 1
  store i16 %52, ptr %53, align 2
  %54 = getelementptr inbounds nuw %struct.TM_IndexStatus, ptr %30, i64 %indvars.iv
  store i16 %44, ptr %54, align 2
  %55 = getelementptr inbounds nuw %struct.TM_IndexStatus, ptr %30, i64 %indvars.iv, i32 1
  store i8 1, ptr %55, align 2
  %56 = getelementptr inbounds nuw %struct.TM_IndexStatus, ptr %30, i64 %indvars.iv, i32 2
  store i8 0, ptr %56, align 1
  %57 = getelementptr inbounds nuw %struct.TM_IndexStatus, ptr %30, i64 %indvars.iv, i32 3
  store i16 0, ptr %57, align 2
  %58 = add i32 %42, 1
  store i32 %58, ptr %24, align 4
  %indvars.iv.next = add nuw nsw i64 %indvars.iv, 1
  %exitcond.not = icmp eq i64 %indvars.iv.next, %wide.trip.count
  br i1 %exitcond.not, label %._crit_edge, label %41, !llvm.loop !9
}